target datalayout = "e-m:e-p270:32:32-p271:32:32-p272:64:64-i64:64-i128:128-f80:128-n8:16:32:64-S128"
target triple = "x86_64-pc-linux-gnu"

%struct.global_State = type { ptr, ptr, %struct.GCState, %struct.GCstr, i8, i8, i8, i8, %struct.StrInternState, i32, %struct.GCRef, %struct.SBuf, %union.TValue, %union.TValue, %struct.Node, %union.TValue, %struct.GCupval, i32, i32, ptr, ptr, ptr, i32, i32, %struct.GCRef, %struct.MRef, %struct.MRef, %struct.PRNGState, [39 x %struct.GCRef] }
%struct.GCState = type { i64, i64, i8, i8, i8, i8, i32, %struct.GCRef, %struct.MRef, %struct.GCRef, %struct.GCRef, %struct.GCRef, %struct.GCRef, i64, i64, i32, i32, %struct.MRef }
%struct.GCstr = type { %struct.GCRef, i8, i8, i8, i8, i32, i32, i32 }
%struct.StrInternState = type { ptr, i32, i32, i32, i8, i8, i8, i8, i64 }
%struct.SBuf = type { ptr, ptr, ptr, %struct.MRef }
%struct.Node = type { %union.TValue, %union.TValue, %struct.MRef }
%union.TValue = type { i64 }
%struct.GCupval = type { %struct.GCRef, i8, i8, i8, i8, %union.anon, %struct.MRef, i32 }
%union.anon = type { %struct.anon.1 }
%struct.anon.1 = type { %struct.GCRef, %struct.GCRef }
%struct.GCRef = type { i64 }
%struct.MRef = type { i64 }
%struct.PRNGState = type { [4 x i64] }
%struct.lua_State = type { %struct.GCRef, i8, i8, i8, i8, %struct.MRef, %struct.GCRef, ptr, ptr, %struct.MRef, %struct.MRef, %struct.GCRef, %struct.GCRef, ptr, i32 }
%struct.GChead = type { %struct.GCRef, i8, i8, i8, i8, %struct.GCRef, %struct.GCRef, %struct.GCRef }
%struct.GG_State = type { %struct.lua_State, %struct.global_State, %struct.jit_State, [64 x i16], [243 x ptr], [57 x i32] }
%struct.jit_State = type { %struct.GCtrace, ptr, ptr, ptr, ptr, ptr, ptr, i32, i32, i32, i8, i8, %struct.IRType1, i8, %struct.FoldState, ptr, i32, i32, i32, i32, i32, i32, i32, [1 x i32], [5 x %union.TValue], [3 x %union.TValue], ptr, i32, i32, i32, i32, ptr, ptr, i32, i32, i8, ptr, i32, i32, i16, [101 x i16], [258 x i32], [15 x i32], [16 x ptr], [64 x %struct.HotPenalty], i32, [16 x %struct.BPropEntry], i32, %struct.ScEvEntry, ptr, i32, i32, i32, ptr, i32, i32, ptr, ptr, ptr, i64, i64, %union.TValue, ptr, i32, i32 }
%struct.GCtrace = type { %struct.GCRef, i8, i8, i16, i32, i32, %struct.GCRef, ptr, i32, i32, ptr, ptr, %struct.GCRef, %struct.MRef, i32, i32, ptr, i32, i16, i16, i16, i16, i16, i16, i16, i8, i8, i8, i8 }
%struct.IRType1 = type { i8 }
%struct.FoldState = type { %union.IRIns, [2 x %union.IRIns], [2 x %union.IRIns] }
%union.IRIns = type { %struct.GCRef }
%struct.HotPenalty = type { %struct.MRef, i16, i16 }
%struct.BPropEntry = type { i16, i16, i32 }
%struct.ScEvEntry = type { %struct.MRef, i16, i16, i16, i16, %struct.IRType1, i8 }

@.str = private unnamed_addr constant [24 x i8] c"store to dead GC object\00", align 1
@.str.1 = private unnamed_addr constant [23 x i8] c"copy of dead GC object\00", align 1

; Function Attrs: alwaysinline nounwind uwtable
define internal void @setgcVraw(ptr noundef %0, ptr noundef %1, i32 noundef %2) #4 {
  %4 = alloca ptr, align 8
  %5 = alloca ptr, align 8
  %6 = alloca i32, align 4
  store ptr %0, ptr %4, align 8, !tbaa !45
  store ptr %1, ptr %5, align 8, !tbaa !28
  store i32 %2, ptr %6, align 4, !tbaa !9
  %7 = load ptr, ptr %5, align 8, !tbaa !28
  %8 = ptrtoint ptr %7 to i64
  %9 = load i32, ptr %6, align 4, !tbaa !9
  %10 = zext i32 %9 to i64
  %11 = shl i64 %10, 47
  %12 = or i64 %8, %11
  %13 = load ptr, ptr %4, align 8, !tbaa !45
  %14 = getelementptr inbounds nuw %struct.GCRef, ptr %13, i32 0, i32 0
  store i64 %12, ptr %14, align 8, !tbaa !30
  ret void
}

; Function Attrs: alwaysinline nounwind uwtable
define internal void @checklivetv(ptr noundef %0, ptr noundef %1, ptr noundef %2) #4 {
  %4 = alloca ptr, align 8
  %5 = alloca ptr, align 8
  %6 = alloca ptr, align 8
  store ptr %0, ptr %4, align 8, !tbaa !37
  store ptr %1, ptr %5, align 8, !tbaa !45
  store ptr %2, ptr %6, align 8, !tbaa !118
  ret void
}

; Function Attrs: alwaysinline nounwind uwtable
define internal void @setgcV(ptr noundef %0, ptr noundef %1, ptr noundef %2, i32 noundef %3) #4 {
  %5 = alloca ptr, align 8
  %6 = alloca ptr, align 8
  %7 = alloca ptr, align 8
  %8 = alloca i32, align 4
  store ptr %0, ptr %5, align 8, !tbaa !37
  store ptr %1, ptr %6, align 8, !tbaa !45
  store ptr %2, ptr %7, align 8, !tbaa !28
  store i32 %3, ptr %8, align 4, !tbaa !9
  %9 = load ptr, ptr %6, align 8, !tbaa !45
  %10 = load ptr, ptr %7, align 8, !tbaa !28
  %11 = load i32, ptr %8, align 4, !tbaa !9
  call void @setgcVraw(ptr noundef %9, ptr noundef %10, i32 noundef %11)
  %12 = load ptr, ptr %5, align 8, !tbaa !37
  %13 = load ptr, ptr %6, align 8, !tbaa !45
  call void @checklivetv(ptr noundef %12, ptr noundef %13, ptr noundef @.str)
  ret void
}

; Function Attrs: alwaysinline nounwind uwtable
define internal void @copyTV(ptr noundef %0, ptr noundef %1, ptr noundef %2) #4 {
  %4 = alloca ptr, align 8
  %5 = alloca ptr, align 8
  %6 = alloca ptr, align 8
  store ptr %0, ptr %4, align 8, !tbaa !37
  store ptr %1, ptr %5, align 8, !tbaa !45
  store ptr %2, ptr %6, align 8, !tbaa !45
  %7 = load ptr, ptr %5, align 8, !tbaa !45
  %8 = load ptr, ptr %6, align 8, !tbaa !45
  call void @llvm.memcpy.p0.p0.i64(ptr align 8 %7, ptr align 8 %8, i64 8, i1 false), !tbaa.struct !54
  %9 = load ptr, ptr %4, align 8, !tbaa !37
  %10 = load ptr, ptr %5, align 8, !tbaa !45
  call void @checklivetv(ptr noundef %9, ptr noundef %10, ptr noundef @.str.1)
  ret void
}

; Function Attrs: nounwind uwtable
define internal void @gc_call_finalizer(ptr noundef %0, ptr noundef %1, ptr noundef %2, ptr noundef %3) #0 {
  %5 = alloca ptr, align 8
  %6 = alloca ptr, align 8
  %7 = alloca ptr, align 8
  %8 = alloca ptr, align 8
  %9 = alloca i8, align 1
  %10 = alloca i64, align 8
  %11 = alloca i32, align 4
  %12 = alloca ptr, align 8
  %13 = alloca i64, align 8
  %14 = alloca i64, align 8
  store ptr %0, ptr %5, align 8, !tbaa !4
  store ptr %1, ptr %6, align 8, !tbaa !37
  store ptr %2, ptr %7, align 8, !tbaa !45
  store ptr %3, ptr %8, align 8, !tbaa !28
  call void @llvm.lifetime.start.p0(i64 1, ptr %9) #7
  %15 = load ptr, ptr %5, align 8, !tbaa !4
  %16 = getelementptr inbounds nuw %struct.global_State, ptr %15, i32 0, i32 5
  %17 = load i8, ptr %16, align 1, !tbaa !55
  %18 = zext i8 %17 to i32
  %19 = and i32 %18, -16
  %20 = trunc i32 %19 to i8
  store i8 %20, ptr %9, align 1, !tbaa !30
  call void @llvm.lifetime.start.p0(i64 8, ptr %10) #7
  %21 = load ptr, ptr %5, align 8, !tbaa !4
  %22 = getelementptr inbounds nuw %struct.global_State, ptr %21, i32 0, i32 2
  %23 = getelementptr inbounds nuw %struct.GCState, ptr %22, i32 0, i32 1
  %24 = load i64, ptr %23, align 8, !tbaa !56
  store i64 %24, ptr %10, align 8, !tbaa !11
  call void @llvm.lifetime.start.p0(i64 4, ptr %11) #7
  call void @llvm.lifetime.start.p0(i64 8, ptr %12) #7
  %25 = load ptr, ptr %5, align 8, !tbaa !4
  %26 = getelementptr inbounds i8, ptr %25, i64 -96
  %27 = getelementptr inbounds nuw %struct.GG_State, ptr %26, i32 0, i32 2
  %28 = getelementptr inbounds nuw %struct.jit_State, ptr %27, i32 0, i32 17
  %29 = load i32, ptr %28, align 4, !tbaa !57
  %30 = and i32 %29, -17
  store i32 %30, ptr %28, align 4, !tbaa !57
  %31 = load ptr, ptr %5, align 8, !tbaa !4
  %32 = getelementptr inbounds nuw %struct.global_State, ptr %31, i32 0, i32 5
  %33 = load i8, ptr %32, align 1, !tbaa !55
  %34 = zext i8 %33 to i32
  %35 = or i32 %34, 80
  %36 = and i32 %35, -129
  %37 = trunc i32 %36 to i8
  %38 = load ptr, ptr %5, align 8, !tbaa !4
  %39 = getelementptr inbounds nuw %struct.global_State, ptr %38, i32 0, i32 5
  store i8 %37, ptr %39, align 1, !tbaa !55
  %40 = load i8, ptr %9, align 1, !tbaa !30
  %41 = zext i8 %40 to i32
  %42 = and i32 %41, 128
  %43 = icmp ne i32 %42, 0
  br i1 %43, label %44, label %46

44:                                               ; preds = %4
  %45 = load ptr, ptr %5, align 8, !tbaa !4
  call void @lj_dispatch_update(ptr noundef %45)
  br label %46

46:                                               ; preds = %44, %4
  %47 = load ptr, ptr %5, align 8, !tbaa !4
  %48 = getelementptr inbounds nuw %struct.global_State, ptr %47, i32 0, i32 2
  %49 = getelementptr inbounds nuw %struct.GCState, ptr %48, i32 0, i32 1
  store i64 140737488355328, ptr %49, align 8, !tbaa !56
  %50 = load ptr, ptr %6, align 8, !tbaa !37
  %51 = getelementptr inbounds nuw %struct.lua_State, ptr %50, i32 0, i32 8
  %52 = load ptr, ptr %51, align 8, !tbaa !71
  store ptr %52, ptr %12, align 8, !tbaa !45
  %53 = load ptr, ptr %6, align 8, !tbaa !37
  %54 = load ptr, ptr %12, align 8, !tbaa !45
  %55 = getelementptr inbounds nuw %union.TValue, ptr %54, i32 1
  store ptr %55, ptr %12, align 8, !tbaa !45
  %56 = load ptr, ptr %7, align 8, !tbaa !45
  call void @copyTV(ptr noundef %53, ptr noundef %54, ptr noundef %56)
  %57 = load ptr, ptr %12, align 8, !tbaa !45
  %58 = getelementptr inbounds nuw %union.TValue, ptr %57, i32 1
  store ptr %58, ptr %12, align 8, !tbaa !45
  store i64 -1, ptr %57, align 8, !tbaa !30
  %59 = load ptr, ptr %6, align 8, !tbaa !37
  %60 = load ptr, ptr %12, align 8, !tbaa !45
  %61 = load ptr, ptr %8, align 8, !tbaa !28
  %62 = load ptr, ptr %8, align 8, !tbaa !28
  %63 = getelementptr inbounds nuw %struct.GChead, ptr %62, i32 0, i32 2
  %64 = load i8, ptr %63, align 1, !tbaa !30
  %65 = zext i8 %64 to i32
  %66 = xor i32 %65, -1
  call void @setgcV(ptr noundef %59, ptr noundef %60, ptr noundef %61, i32 noundef %66)
  %67 = load ptr, ptr %12, align 8, !tbaa !45
  %68 = getelementptr inbounds %union.TValue, ptr %67, i64 1
  %69 = load ptr, ptr %6, align 8, !tbaa !37
  %70 = getelementptr inbounds nuw %struct.lua_State, ptr %69, i32 0, i32 8
  store ptr %68, ptr %70, align 8, !tbaa !71
  %71 = load ptr, ptr %6, align 8, !tbaa !37
  %72 = load ptr, ptr %12, align 8, !tbaa !45
  %73 = call i32 @lj_vm_pcall(ptr noundef %71, ptr noundef %72, i32 noundef 1, i64 noundef -1)
  store i32 %73, ptr %11, align 4, !tbaa !9
  %74 = load ptr, ptr %5, align 8, !tbaa !4
  %75 = getelementptr inbounds nuw %struct.global_State, ptr %74, i32 0, i32 5
  %76 = load i8, ptr %75, align 1, !tbaa !55
  %77 = zext i8 %76 to i32
  %78 = and i32 %77, 15
  %79 = load i8, ptr %9, align 1, !tbaa !30
  %80 = zext i8 %79 to i32
  %81 = or i32 %78, %80
  %82 = trunc i32 %81 to i8
  %83 = load ptr, ptr %5, align 8, !tbaa !4
  %84 = getelementptr inbounds nuw %struct.global_State, ptr %83, i32 0, i32 5
  store i8 %82, ptr %84, align 1, !tbaa !55
  %85 = load i8, ptr %9, align 1, !tbaa !30
  %86 = zext i8 %85 to i32
  %87 = and i32 %86, 128
  %88 = icmp ne i32 %87, 0
  br i1 %88, label %89, label %91

89:                                               ; preds = %46
  %90 = load ptr, ptr %5, align 8, !tbaa !4
  call void @lj_dispatch_update(ptr noundef %90)
  br label %91

91:                                               ; preds = %89, %46
  %92 = load i64, ptr %10, align 8, !tbaa !11
  %93 = load ptr, ptr %5, align 8, !tbaa !4
  %94 = getelementptr inbounds nuw %struct.global_State, ptr %93, i32 0, i32 2
  %95 = getelementptr inbounds nuw %struct.GCState, ptr %94, i32 0, i32 1
  store i64 %92, ptr %95, align 8, !tbaa !56
  %96 = load i32, ptr %11, align 4, !tbaa !9
  %97 = icmp ne i32 %96, 0
  br i1 %97, label %98, label %147

98:                                               ; preds = %91
  call void @llvm.lifetime.start.p0(i64 8, ptr %13) #7
  %99 = load ptr, ptr %6, align 8, !tbaa !37
  %100 = getelementptr inbounds nuw %struct.lua_State, ptr %99, i32 0, i32 8
  %101 = load ptr, ptr %100, align 8, !tbaa !71
  %102 = getelementptr inbounds %union.TValue, ptr %101, i64 -1
  %103 = load ptr, ptr %6, align 8, !tbaa !37
  %104 = getelementptr inbounds nuw %struct.lua_State, ptr %103, i32 0, i32 10
  %105 = getelementptr inbounds nuw %struct.MRef, ptr %104, i32 0, i32 0
  %106 = load i64, ptr %105, align 8, !tbaa !72
  %107 = inttoptr i64 %106 to ptr
  %108 = ptrtoint ptr %102 to i64
  %109 = ptrtoint ptr %107 to i64
  %110 = sub i64 %108, %109
  store i64 %110, ptr %13, align 8, !tbaa !11
  %111 = load ptr, ptr %6, align 8, !tbaa !37
  %112 = getelementptr inbounds nuw %struct.lua_State, ptr %111, i32 0, i32 5
  %113 = getelementptr inbounds nuw %struct.MRef, ptr %112, i32 0, i32 0
  %114 = load i64, ptr %113, align 8, !tbaa !39
  %115 = inttoptr i64 %114 to ptr
  %116 = getelementptr inbounds nuw %struct.global_State, ptr %115, i32 0, i32 7
  %117 = load i8, ptr %116, align 1, !tbaa !73
  %118 = zext i8 %117 to i32
  %119 = and i32 %118, 16
  %120 = icmp ne i32 %119, 0
  br i1 %120, label %121, label %142

121:                                              ; preds = %98
  call void @llvm.lifetime.start.p0(i64 8, ptr %14) #7
  %122 = load ptr, ptr %6, align 8, !tbaa !37
  %123 = call i64 @lj_vmevent_prepare(ptr noundef %122, i32 noundef -1765161916)
  store i64 %123, ptr %14, align 8, !tbaa !11
  %124 = load i64, ptr %14, align 8, !tbaa !11
  %125 = icmp ne i64 %124, 0
  br i1 %125, label %126, label %141

126:                                              ; preds = %121
  %127 = load ptr, ptr %6, align 8, !tbaa !37
  %128 = load ptr, ptr %6, align 8, !tbaa !37
  %129 = getelementptr inbounds nuw %struct.lua_State, ptr %128, i32 0, i32 8
  %130 = load ptr, ptr %129, align 8, !tbaa !71
  %131 = getelementptr inbounds nuw %union.TValue, ptr %130, i32 1
  store ptr %131, ptr %129, align 8, !tbaa !71
  %132 = load ptr, ptr %6, align 8, !tbaa !37
  %133 = getelementptr inbounds nuw %struct.lua_State, ptr %132, i32 0, i32 10
  %134 = getelementptr inbounds nuw %struct.MRef, ptr %133, i32 0, i32 0
  %135 = load i64, ptr %134, align 8, !tbaa !72
  %136 = inttoptr i64 %135 to ptr
  %137 = load i64, ptr %13, align 8, !tbaa !11
  %138 = getelementptr inbounds i8, ptr %136, i64 %137
  call void @copyTV(ptr noundef %127, ptr noundef %130, ptr noundef %138)
  %139 = load ptr, ptr %6, align 8, !tbaa !37
  %140 = load i64, ptr %14, align 8, !tbaa !11
  call void @lj_vmevent_call(ptr noundef %139, i64 noundef %140)
  br label %141

141:                                              ; preds = %126, %121
  call void @llvm.lifetime.end.p0(i64 8, ptr %14) #7
  br label %142

142:                                              ; preds = %141, %98
  %143 = load ptr, ptr %6, align 8, !tbaa !37
  %144 = getelementptr inbounds nuw %struct.lua_State, ptr %143, i32 0, i32 8
  %145 = load ptr, ptr %144, align 8, !tbaa !71
  %146 = getelementptr inbounds %union.TValue, ptr %145, i32 -1
  store ptr %146, ptr %144, align 8, !tbaa !71
  call void @llvm.lifetime.end.p0(i64 8, ptr %13) #7
  br label %147

147:                                              ; preds = %142, %91
  call void @llvm.lifetime.end.p0(i64 8, ptr %12) #7
  call void @llvm.lifetime.end.p0(i64 4, ptr %11) #7
  call void @llvm.lifetime.end.p0(i64 8, ptr %10) #7
  call void @llvm.lifetime.end.p0(i64 1, ptr %9) #7
  ret void
}