; Function Attrs: nounwind uwtable
define internal fastcc void @gc_call_finalizer(ptr noundef %0, ptr noundef %1, ptr noundef nonnull readonly captures(none) %2, ptr noundef %3) unnamed_addr #0 {
  %5 = getelementptr inbounds nuw i8, ptr %0, i64 145
  %6 = load i8, ptr %5, align 1, !tbaa !40
  %7 = and i8 %6, -16
  %8 = getelementptr inbounds nuw i8, ptr %0, i64 24
  %9 = load i64, ptr %8, align 8, !tbaa !41
  %10 = getelementptr inbounds nuw i8, ptr %0, i64 972
  %11 = load i32, ptr %10, align 4, !tbaa !42
  %12 = and i32 %11, -17
  store i32 %12, ptr %10, align 4, !tbaa !42
  %13 = and i8 %6, 47
  %14 = or disjoint i8 %13, 80
  store i8 %14, ptr %5, align 1, !tbaa !40
  %.not = icmp sgt i8 %6, -1
  br i1 %.not, label %16, label %15

15:                                               ; preds = %4
  tail call void @lj_dispatch_update(ptr noundef nonnull %0) #8
  br label %16

16:                                               ; preds = %15, %4
  store i64 140737488355328, ptr %8, align 8, !tbaa !41
  %17 = getelementptr inbounds nuw i8, ptr %1, i64 40
  %18 = load ptr, ptr %17, align 8, !tbaa !57
  %19 = getelementptr inbounds nuw i8, ptr %18, i64 8
  %20 = load i64, ptr %2, align 8, !tbaa !23
  store i64 %20, ptr %18, align 8, !tbaa !23
  %21 = getelementptr inbounds nuw i8, ptr %18, i64 16
  store i64 -1, ptr %19, align 8, !tbaa !23
  %22 = getelementptr inbounds nuw i8, ptr %3, i64 9
  %23 = load i8, ptr %22, align 1, !tbaa !23
  %24 = zext i8 %23 to i64
  %25 = xor i64 %24, -1
  %26 = ptrtoint ptr %3 to i64
  %27 = shl nsw i64 %25, 47
  %28 = or i64 %27, %26
  store i64 %28, ptr %21, align 8, !tbaa !23
  %29 = getelementptr inbounds nuw i8, ptr %18, i64 24
  store ptr %29, ptr %17, align 8, !tbaa !57
  %30 = tail call i32 @lj_vm_pcall(ptr noundef %1, ptr noundef nonnull %21, i32 noundef 1, i64 noundef -1) #8
  %31 = load i8, ptr %5, align 1, !tbaa !40
  %32 = and i8 %31, 15
  %33 = or disjoint i8 %32, %7
  store i8 %33, ptr %5, align 1, !tbaa !40
  br i1 %.not, label %35, label %34

34:                                               ; preds = %16
  tail call void @lj_dispatch_update(ptr noundef nonnull %0) #8
  br label %35

35:                                               ; preds = %34, %16
  store i64 %9, ptr %8, align 8, !tbaa !41
  %.not40 = icmp eq i32 %30, 0
  br i1 %.not40, label %60, label %36

36:                                               ; preds = %35
  %37 = load ptr, ptr %17, align 8, !tbaa !57
  %38 = getelementptr inbounds i8, ptr %37, i64 -8
  %39 = getelementptr inbounds nuw i8, ptr %1, i64 56
  %40 = load i64, ptr %39, align 8, !tbaa !58
  %41 = ptrtoint ptr %38 to i64
  %42 = sub i64 %41, %40
  %43 = getelementptr inbounds nuw i8, ptr %1, i64 16
  %44 = load i64, ptr %43, align 8, !tbaa !30
  %45 = inttoptr i64 %44 to ptr
  %46 = getelementptr inbounds nuw i8, ptr %45, i64 147
  %47 = load i8, ptr %46, align 1, !tbaa !59
  %48 = and i8 %47, 16
  %.not41 = icmp eq i8 %48, 0
  br i1 %.not41, label %57, label %49

49:                                               ; preds = %36
  %50 = tail call i64 @lj_vmevent_prepare(ptr noundef nonnull %1, i32 noundef -1765161916) #8
  %.not42 = icmp eq i64 %50, 0
  %.pre43 = load ptr, ptr %17, align 8, !tbaa !57
  br i1 %.not42, label %57, label %51

51:                                               ; preds = %49
  %52 = getelementptr inbounds nuw i8, ptr %.pre43, i64 8
  store ptr %52, ptr %17, align 8, !tbaa !57
  %53 = load i64, ptr %39, align 8, !tbaa !58
  %54 = inttoptr i64 %53 to ptr
  %55 = getelementptr inbounds i8, ptr %54, i64 %42
  %56 = load i64, ptr %55, align 8, !tbaa !23
  store i64 %56, ptr %.pre43, align 8, !tbaa !23
  tail call void @lj_vmevent_call(ptr noundef nonnull %1, i64 noundef %50) #8
  %.pre = load ptr, ptr %17, align 8, !tbaa !57
  br label %57

57:                                               ; preds = %49, %51, %36
  %58 = phi ptr [ %.pre43, %49 ], [ %.pre, %51 ], [ %37, %36 ]
  %59 = getelementptr inbounds i8, ptr %58, i64 -8
  store ptr %59, ptr %17, align 8, !tbaa !57
  br label %60

60:                                               ; preds = %57, %35
  ret void
}